(lp0
(F0.22862237689953255
F0.17337607178482364
F0.027290701035622034
tp1
a(F0.3124801338576935
F0.19376554459692874
F0.08703755383568401
tp2
a(lp3
(lp4
(lp5
F0.0
aF2.0000000000000013
aF0.0
aF0.0
aF0.0
aF0.0
a(lp6
(lp7
F0.0
aF0.0
aa(lp8
F0.0
aF0.0
aa(lp9
F10000.0
aF10000.0
aaaaaF1.0
aF0.0
aaF2.0000000000000013
a.